target datalayout = "e-m:e-p270:32:32-p271:32:32-p272:64:64-i64:64-i128:128-f80:128-n8:16:32:64-S128"
target triple = "x86_64-pc-linux-gnu"

%"class.std::basic_istream" = type { ptr, i64, %"class.std::basic_ios" }
%"class.std::basic_ios" = type { %"class.std::ios_base", ptr, i8, i8, ptr, ptr, ptr, ptr }
%"class.std::ios_base" = type { ptr, i64, i64, i32, i32, i32, ptr, %"struct.std::ios_base::_Words", [8 x %"struct.std::ios_base::_Words"], i32, ptr, %"class.std::locale" }
%"struct.std::ios_base::_Words" = type { ptr, i64 }
%"class.std::locale" = type { ptr }
%"class.std::basic_ostream" = type { ptr, %"class.std::basic_ios" }
%class.V3LexerBase = type <{ %class.FlexLexer.base, i32, i32, [4 x i8], ptr, %"class.std::basic_istream", %"class.std::basic_ostream", i8, [3 x i8], i32, ptr, i32, i32, i32, [4 x i8], i64, i64, ptr, i32, [4 x i8], ptr, ptr, ptr, ptr, ptr, i32, i32, i32, i32, i32, i32, i32, [4 x i8] }>
%class.FlexLexer.base = type <{ ptr, ptr, i32, i32, i32 }>

@.str.30 = private unnamed_addr constant [46 x i8] c"out of memory expanding start-condition stack\00", align 1

; Function Attrs: mustprogress nounwind uwtable
define dso_local noundef ptr @_Z9yyreallocPvm(ptr noundef %0, i64 noundef %1) #4 {
  %3 = alloca ptr, align 8
  %4 = alloca i64, align 8
  store ptr %0, ptr %3, align 8
  store i64 %1, ptr %4, align 8
  %5 = load ptr, ptr %3, align 8
  %6 = load i64, ptr %4, align 8
  %7 = call ptr @realloc(ptr noundef %5, i64 noundef %6) #25
  ret ptr %7
}

; Function Attrs: mustprogress nounwind uwtable
define dso_local noundef ptr @_Z7yyallocm(i64 noundef %0) #4 {
  %2 = alloca i64, align 8
  store i64 %0, ptr %2, align 8
  %3 = load i64, ptr %2, align 8
  %4 = call noalias ptr @malloc(i64 noundef %3) #27
  ret ptr %4
}

; Function Attrs: mustprogress uwtable
define dso_local void @_ZN11V3LexerBase13yy_push_stateEi(ptr noundef nonnull align 8 dereferenceable(732) %0, i32 noundef %1) #5 align 2 {
  %3 = alloca ptr, align 8
  %4 = alloca i32, align 4
  %5 = alloca i64, align 8
  store ptr %0, ptr %3, align 8
  store i32 %1, ptr %4, align 4
  %6 = load ptr, ptr %3, align 8
  %7 = getelementptr inbounds %class.V3LexerBase, ptr %6, i32 0, i32 1
  %8 = load i32, ptr %7, align 4
  %9 = getelementptr inbounds %class.V3LexerBase, ptr %6, i32 0, i32 2
  %10 = load i32, ptr %9, align 8
  %11 = icmp sge i32 %8, %10
  br i1 %11, label %12, label %42

12:                                               ; preds = %2
  %13 = getelementptr inbounds %class.V3LexerBase, ptr %6, i32 0, i32 2
  %14 = load i32, ptr %13, align 8
  %15 = add nsw i32 %14, 25
  store i32 %15, ptr %13, align 8
  %16 = getelementptr inbounds %class.V3LexerBase, ptr %6, i32 0, i32 2
  %17 = load i32, ptr %16, align 8
  %18 = sext i32 %17 to i64
  %19 = mul i64 %18, 4
  store i64 %19, ptr %5, align 8
  %20 = getelementptr inbounds %class.V3LexerBase, ptr %6, i32 0, i32 4
  %21 = load ptr, ptr %20, align 8
  %22 = icmp ne ptr %21, null
  br i1 %22, label %27, label %23

23:                                               ; preds = %12
  %24 = load i64, ptr %5, align 8
  %25 = call noundef ptr @_Z7yyallocm(i64 noundef %24)
  %26 = getelementptr inbounds %class.V3LexerBase, ptr %6, i32 0, i32 4
  store ptr %25, ptr %26, align 8
  br label %33

27:                                               ; preds = %12
  %28 = getelementptr inbounds %class.V3LexerBase, ptr %6, i32 0, i32 4
  %29 = load ptr, ptr %28, align 8
  %30 = load i64, ptr %5, align 8
  %31 = call noundef ptr @_Z9yyreallocPvm(ptr noundef %29, i64 noundef %30)
  %32 = getelementptr inbounds %class.V3LexerBase, ptr %6, i32 0, i32 4
  store ptr %31, ptr %32, align 8
  br label %33

33:                                               ; preds = %27, %23
  %34 = getelementptr inbounds %class.V3LexerBase, ptr %6, i32 0, i32 4
  %35 = load ptr, ptr %34, align 8
  %36 = icmp ne ptr %35, null
  br i1 %36, label %41, label %37

37:                                               ; preds = %33
  %38 = load ptr, ptr %6, align 8
  %39 = getelementptr inbounds ptr, ptr %38, i64 14
  %40 = load ptr, ptr %39, align 8
  call void %40(ptr noundef nonnull align 8 dereferenceable(732) %6, ptr noundef @.str.30)
  br label %41

41:                                               ; preds = %37, %33
  br label %42

42:                                               ; preds = %41, %2
  %43 = getelementptr inbounds %class.V3LexerBase, ptr %6, i32 0, i32 12
  %44 = load i32, ptr %43, align 4
  %45 = sub nsw i32 %44, 1
  %46 = sdiv i32 %45, 2
  %47 = getelementptr inbounds %class.V3LexerBase, ptr %6, i32 0, i32 4
  %48 = load ptr, ptr %47, align 8
  %49 = getelementptr inbounds %class.V3LexerBase, ptr %6, i32 0, i32 1
  %50 = load i32, ptr %49, align 4
  %51 = add nsw i32 %50, 1
  store i32 %51, ptr %49, align 4
  %52 = sext i32 %50 to i64
  %53 = getelementptr inbounds i32, ptr %48, i64 %52
  store i32 %46, ptr %53, align 4
  %54 = load i32, ptr %4, align 4
  %55 = mul nsw i32 2, %54
  %56 = add nsw i32 1, %55
  %57 = getelementptr inbounds %class.V3LexerBase, ptr %6, i32 0, i32 12
  store i32 %56, ptr %57, align 4
  ret void
}