; Function Attrs: mustprogress uwtable
define dso_local void @_ZN11V3LexerBase13yy_push_stateEi(ptr noundef nonnull align 8 dereferenceable(732) %0, i32 noundef %1) local_unnamed_addr #4 align 2 {
  %3 = getelementptr inbounds i8, ptr %0, i64 28
  %4 = load i32, ptr %3, align 4
  %5 = getelementptr inbounds i8, ptr %0, i64 32
  %6 = load i32, ptr %5, align 8
  %.not = icmp slt i32 %4, %6
  br i1 %.not, label %22, label %7

7:                                                ; preds = %2
  %8 = add nsw i32 %6, 25
  store i32 %8, ptr %5, align 8
  %9 = sext i32 %8 to i64
  %10 = shl nsw i64 %9, 2
  %11 = getelementptr inbounds i8, ptr %0, i64 40
  %12 = load ptr, ptr %11, align 8
  %.not4 = icmp eq ptr %12, null
  br i1 %.not4, label %13, label %15

13:                                               ; preds = %7
  %14 = tail call noalias noundef ptr @malloc(i64 noundef %10) #31
  br label %17

15:                                               ; preds = %7
  %16 = tail call noalias noundef ptr @realloc(ptr noundef nonnull %12, i64 noundef %10) #32
  br label %17

17:                                               ; preds = %15, %13
  %storemerge = phi ptr [ %14, %13 ], [ %16, %15 ]
  store ptr %storemerge, ptr %11, align 8
  %.not5 = icmp eq ptr %storemerge, null
  br i1 %.not5, label %18, label %22

18:                                               ; preds = %17
  %19 = load ptr, ptr %0, align 8
  %20 = getelementptr inbounds i8, ptr %19, i64 112
  %21 = load ptr, ptr %20, align 8
  tail call void %21(ptr noundef nonnull align 8 dereferenceable(732) %0, ptr noundef nonnull @.str.30)
  br label %22

22:                                               ; preds = %17, %18, %2
  %23 = getelementptr inbounds i8, ptr %0, i64 620
  %24 = load i32, ptr %23, align 4
  %25 = add nsw i32 %24, -1
  %26 = sdiv i32 %25, 2
  %27 = getelementptr inbounds i8, ptr %0, i64 40
  %28 = load ptr, ptr %27, align 8
  %29 = load i32, ptr %3, align 4
  %30 = add nsw i32 %29, 1
  store i32 %30, ptr %3, align 4
  %31 = sext i32 %29 to i64
  %32 = getelementptr inbounds i32, ptr %28, i64 %31
  store i32 %26, ptr %32, align 4
  %33 = shl nsw i32 %1, 1
  %34 = or disjoint i32 %33, 1
  store i32 %34, ptr %23, align 4
  ret void
}